target datalayout = "e-m:e-p270:32:32-p271:32:32-p272:64:64-i64:64-i128:128-f80:128-n8:16:32:64-S128"
target triple = "x86_64-pc-linux-gnu"

%struct.h5tools_str_t = type { ptr, i64, i64 }
%struct.h5tool_format_t = type { i8, ptr, ptr, ptr, ptr, ptr, ptr, ptr, ptr, ptr, ptr, ptr, ptr, ptr, ptr, ptr, ptr, ptr, i32, i32, i32, ptr, ptr, ptr, i32, ptr, ptr, ptr, ptr, ptr, ptr, ptr, ptr, ptr, ptr, ptr, ptr, ptr, ptr, ptr, ptr, i32, i64, ptr, ptr, ptr, ptr, ptr, i32, ptr, i32, i32, ptr, i32, ptr, ptr, ptr, ptr, i32, i32 }
%struct.h5tools_context_t = type { i64, i64, i32, i32, [32 x i64], [32 x i64], i32, i64, i32, i64, i32, i32, [32 x i64], [32 x i64], i64, ptr, ptr, i32, i32 }

@.str.11 = private unnamed_addr constant [2 x i8] c",\00", align 1
@.str.20 = private unnamed_addr constant [3 x i8] c"%s\00", align 1
@bin_output = external global i32, align 4
@rawdatastream = external global ptr, align 8
@rawoutstream = external global ptr, align 8
@.str.53 = private unnamed_addr constant [33 x i8] c"\0AError in writing binary stream\0A\00", align 1

; Function Attrs: nounwind uwtable
define i32 @h5tools_dump_simple_data(ptr noundef %0, ptr noundef %1, ptr noundef %2, i64 noundef %3, i32 noundef %4, i64 noundef %5, i64 noundef %6, ptr noundef %7) #0 {
  %9 = alloca ptr, align 8
  %10 = alloca ptr, align 8
  %11 = alloca ptr, align 8
  %12 = alloca i64, align 8
  %13 = alloca i32, align 4
  %14 = alloca i64, align 8
  %15 = alloca i64, align 8
  %16 = alloca ptr, align 8
  %17 = alloca ptr, align 8
  %18 = alloca i64, align 8
  %19 = alloca i64, align 8
  %20 = alloca i8, align 1
  %21 = alloca i64, align 8
  %22 = alloca %struct.h5tools_str_t, align 8
  %23 = alloca i64, align 8
  %24 = alloca i64, align 8
  %25 = alloca i32, align 4
  %26 = alloca ptr, align 8
  store ptr %0, ptr %9, align 8, !tbaa !8
  store ptr %1, ptr %10, align 8, !tbaa !10
  store ptr %2, ptr %11, align 8, !tbaa !12
  store i64 %3, ptr %12, align 8, !tbaa !14
  store i32 %4, ptr %13, align 4, !tbaa !16
  store i64 %5, ptr %14, align 8, !tbaa !14
  store i64 %6, ptr %15, align 8, !tbaa !14
  store ptr %7, ptr %16, align 8, !tbaa !18
  call void @llvm.lifetime.start.p0(i64 8, ptr %17) #10
  %27 = load ptr, ptr %16, align 8, !tbaa !18
  store ptr %27, ptr %17, align 8, !tbaa !19
  call void @llvm.lifetime.start.p0(i64 8, ptr %18) #10
  call void @llvm.lifetime.start.p0(i64 8, ptr %19) #10
  call void @llvm.lifetime.start.p0(i64 1, ptr %20) #10
  store i8 1, ptr %20, align 1, !tbaa !21
  call void @llvm.lifetime.start.p0(i64 8, ptr %21) #10
  store i64 80, ptr %21, align 8, !tbaa !14
  call void @llvm.lifetime.start.p0(i64 24, ptr %22) #10
  call void @llvm.lifetime.start.p0(i64 8, ptr %23) #10
  store i64 0, ptr %23, align 8, !tbaa !14
  call void @llvm.lifetime.start.p0(i64 8, ptr %24) #10
  store i64 0, ptr %24, align 8, !tbaa !14
  call void @llvm.lifetime.start.p0(i64 4, ptr %25) #10
  store i32 0, ptr %25, align 4, !tbaa !16
  br label %28

28:                                               ; preds = %8
  br label %29

29:                                               ; preds = %28
  br label %30

30:                                               ; preds = %29
  br label %31

31:                                               ; preds = %30
  br label %32

32:                                               ; preds = %31
  br label %33

33:                                               ; preds = %32
  %34 = load i32, ptr @bin_output, align 4, !tbaa !16
  %35 = icmp ne i32 %34, 0
  br i1 %35, label %36, label %58

36:                                               ; preds = %33
  %37 = load ptr, ptr @rawdatastream, align 8, !tbaa !8
  %38 = icmp ne ptr %37, null
  br i1 %38, label %39, label %58

39:                                               ; preds = %36
  br label %40

40:                                               ; preds = %39
  br label %41

41:                                               ; preds = %40
  br label %42

42:                                               ; preds = %41
  %43 = load ptr, ptr @rawdatastream, align 8, !tbaa !8
  %44 = load i64, ptr %12, align 8, !tbaa !14
  %45 = load i64, ptr %15, align 8, !tbaa !14
  %46 = load ptr, ptr %16, align 8, !tbaa !18
  %47 = load i64, ptr %14, align 8, !tbaa !14
  %48 = call i32 @render_bin_output(ptr noundef %43, i64 noundef %44, i64 noundef %45, ptr noundef %46, i64 noundef %47)
  %49 = icmp slt i32 %48, 0
  br i1 %49, label %50, label %57

50:                                               ; preds = %42
  %51 = load ptr, ptr @rawoutstream, align 8, !tbaa !8
  %52 = icmp ne ptr %51, null
  br i1 %52, label %53, label %56

53:                                               ; preds = %50
  %54 = load ptr, ptr @rawoutstream, align 8, !tbaa !8
  %55 = call i32 (ptr, ptr, ...) @fprintf(ptr noundef %54, ptr noundef @.str.53) #10
  br label %56

56:                                               ; preds = %53, %50
  br label %57

57:                                               ; preds = %56, %42
  br label %146

58:                                               ; preds = %36, %33
  call void @llvm.memset.p0.i64(ptr align 8 %22, i8 0, i64 24, i1 false)
  %59 = load i64, ptr %15, align 8, !tbaa !14
  %60 = call i64 @H5Tget_size(i64 noundef %59)
  store i64 %60, ptr %19, align 8, !tbaa !14
  br label %61

61:                                               ; preds = %58
  br label %62

62:                                               ; preds = %61
  br label %63

63:                                               ; preds = %62
  %64 = load ptr, ptr %10, align 8, !tbaa !10
  %65 = getelementptr inbounds nuw %struct.h5tool_format_t, ptr %64, i32 0, i32 41
  %66 = load i32, ptr %65, align 8, !tbaa !23
  %67 = icmp ugt i32 %66, 0
  br i1 %67, label %68, label %73

68:                                               ; preds = %63
  %69 = load ptr, ptr %10, align 8, !tbaa !10
  %70 = getelementptr inbounds nuw %struct.h5tool_format_t, ptr %69, i32 0, i32 41
  %71 = load i32, ptr %70, align 8, !tbaa !23
  %72 = zext i32 %71 to i64
  store i64 %72, ptr %21, align 8, !tbaa !14
  br label %73

73:                                               ; preds = %68, %63
  %74 = load ptr, ptr %11, align 8, !tbaa !12
  %75 = getelementptr inbounds nuw %struct.h5tools_context_t, ptr %74, i32 0, i32 14
  %76 = load i64, ptr %75, align 8, !tbaa !26
  store i64 %76, ptr %23, align 8, !tbaa !14
  br label %77

77:                                               ; preds = %73
  br label %78

78:                                               ; preds = %77
  br label %79

79:                                               ; preds = %78
  store i64 0, ptr %18, align 8, !tbaa !14
  br label %80

80:                                               ; preds = %133, %79
  %81 = load i64, ptr %18, align 8, !tbaa !14
  %82 = load i64, ptr %14, align 8, !tbaa !14
  %83 = icmp ult i64 %81, %82
  br i1 %83, label %84, label %142

84:                                               ; preds = %80
  call void @llvm.lifetime.start.p0(i64 8, ptr %26) #10
  %85 = load ptr, ptr %17, align 8, !tbaa !19
  %86 = load i64, ptr %18, align 8, !tbaa !14
  %87 = load i64, ptr %19, align 8, !tbaa !14
  %88 = mul i64 %86, %87
  %89 = getelementptr inbounds nuw i8, ptr %85, i64 %88
  store ptr %89, ptr %26, align 8, !tbaa !18
  %90 = call ptr @h5tools_str_reset(ptr noundef %22)
  %91 = load ptr, ptr %10, align 8, !tbaa !10
  %92 = load i64, ptr %12, align 8, !tbaa !14
  %93 = load i64, ptr %15, align 8, !tbaa !14
  %94 = load ptr, ptr %26, align 8, !tbaa !18
  %95 = load ptr, ptr %11, align 8, !tbaa !12
  %96 = call ptr @h5tools_str_sprint(ptr noundef %22, ptr noundef %91, i64 noundef %92, i64 noundef %93, ptr noundef %94, ptr noundef %95)
  %97 = load i64, ptr %18, align 8, !tbaa !14
  %98 = add i64 %97, 1
  %99 = load i64, ptr %14, align 8, !tbaa !14
  %100 = icmp ult i64 %98, %99
  br i1 %100, label %105, label %101

101:                                              ; preds = %84
  %102 = load i32, ptr %13, align 4, !tbaa !16
  %103 = and i32 %102, 2
  %104 = icmp eq i32 %103, 0
  br i1 %104, label %105, label %118

105:                                              ; preds = %101, %84
  %106 = load ptr, ptr %10, align 8, !tbaa !10
  %107 = getelementptr inbounds nuw %struct.h5tool_format_t, ptr %106, i32 0, i32 36
  %108 = load ptr, ptr %107, align 8, !tbaa !29
  %109 = icmp ne ptr %108, null
  br i1 %109, label %110, label %114

110:                                              ; preds = %105
  %111 = load ptr, ptr %10, align 8, !tbaa !10
  %112 = getelementptr inbounds nuw %struct.h5tool_format_t, ptr %111, i32 0, i32 36
  %113 = load ptr, ptr %112, align 8, !tbaa !29
  br label %115

114:                                              ; preds = %105
  br label %115

115:                                              ; preds = %114, %110
  %116 = phi ptr [ %113, %110 ], [ @.str.11, %114 ]
  %117 = call ptr (ptr, ptr, ...) @h5tools_str_append(ptr noundef %22, ptr noundef @.str.20, ptr noundef %116)
  br label %118

118:                                              ; preds = %115, %101
  %119 = load ptr, ptr %9, align 8, !tbaa !8
  %120 = load ptr, ptr %10, align 8, !tbaa !10
  %121 = load ptr, ptr %11, align 8, !tbaa !12
  %122 = load i64, ptr %21, align 8, !tbaa !14
  %123 = load i64, ptr %18, align 8, !tbaa !14
  %124 = load i64, ptr %24, align 8, !tbaa !14
  %125 = call zeroext i1 @h5tools_render_element(ptr noundef %119, ptr noundef %120, ptr noundef %121, ptr noundef %22, ptr noundef %23, i64 noundef %122, i64 noundef %123, i64 noundef %124)
  %126 = zext i1 %125 to i8
  store i8 %126, ptr %20, align 1, !tbaa !21
  %127 = load i8, ptr %20, align 1, !tbaa !21, !range !30, !noundef !31
  %128 = trunc i8 %127 to i1
  %129 = zext i1 %128 to i32
  %130 = icmp eq i32 0, %129
  br i1 %130, label %131, label %132

131:                                              ; preds = %118
  store i64 0, ptr %24, align 8, !tbaa !14
  br label %132

132:                                              ; preds = %131, %118
  call void @llvm.lifetime.end.p0(i64 8, ptr %26) #10
  br label %133

133:                                              ; preds = %132
  %134 = load i64, ptr %18, align 8, !tbaa !14
  %135 = add i64 %134, 1
  store i64 %135, ptr %18, align 8, !tbaa !14
  %136 = load ptr, ptr %11, align 8, !tbaa !12
  %137 = getelementptr inbounds nuw %struct.h5tools_context_t, ptr %136, i32 0, i32 1
  %138 = load i64, ptr %137, align 8, !tbaa !32
  %139 = add i64 %138, 1
  store i64 %139, ptr %137, align 8, !tbaa !32
  %140 = load i64, ptr %24, align 8, !tbaa !14
  %141 = add i64 %140, 1
  store i64 %141, ptr %24, align 8, !tbaa !14
  br label %80, !llvm.loop !33

142:                                              ; preds = %80
  br label %143

143:                                              ; preds = %142
  br label %144

144:                                              ; preds = %143
  br label %145

145:                                              ; preds = %144
  call void @h5tools_str_close(ptr noundef %22)
  br label %146

146:                                              ; preds = %145, %57
  br label %147

147:                                              ; preds = %146
  br label %148

148:                                              ; preds = %147
  br label %149

149:                                              ; preds = %148
  %150 = load i32, ptr %25, align 4, !tbaa !16
  call void @llvm.lifetime.end.p0(i64 4, ptr %25) #10
  call void @llvm.lifetime.end.p0(i64 8, ptr %24) #10
  call void @llvm.lifetime.end.p0(i64 8, ptr %23) #10
  call void @llvm.lifetime.end.p0(i64 24, ptr %22) #10
  call void @llvm.lifetime.end.p0(i64 8, ptr %21) #10
  call void @llvm.lifetime.end.p0(i64 1, ptr %20) #10
  call void @llvm.lifetime.end.p0(i64 8, ptr %19) #10
  call void @llvm.lifetime.end.p0(i64 8, ptr %18) #10
  call void @llvm.lifetime.end.p0(i64 8, ptr %17) #10
  ret i32 %150
}