; Function Attrs: nounwind uwtable
define noundef i32 @h5tools_dump_simple_data(ptr noundef %0, ptr noundef %1, ptr noundef %2, i64 noundef %3, i32 noundef %4, i64 noundef %5, i64 noundef %6, ptr noundef %7) local_unnamed_addr #1 {
  %9 = alloca %struct.h5tools_str_t, align 8
  %10 = alloca i64, align 8
  call void @llvm.lifetime.start.p0(i64 24, ptr nonnull %9) #12
  call void @llvm.lifetime.start.p0(i64 8, ptr nonnull %10) #12
  %11 = load i32, ptr @bin_output, align 4, !tbaa !8
  %12 = icmp ne i32 %11, 0
  %13 = load ptr, ptr @rawdatastream, align 8
  %14 = icmp ne ptr %13, null
  %or.cond = select i1 %12, i1 %14, i1 false
  br i1 %or.cond, label %15, label %22

15:                                               ; preds = %8
  %16 = tail call i32 @render_bin_output(ptr noundef nonnull %13, i64 noundef %3, i64 noundef %6, ptr noundef %7, i64 noundef %5) #12
  %17 = icmp slt i32 %16, 0
  %18 = load ptr, ptr @rawoutstream, align 8
  %19 = icmp ne ptr %18, null
  %or.cond3 = select i1 %17, i1 %19, i1 false
  br i1 %or.cond3, label %20, label %59

20:                                               ; preds = %15
  %21 = tail call i64 @fwrite(ptr nonnull @.str.53, i64 32, i64 1, ptr nonnull %18)
  br label %59

22:                                               ; preds = %8
  call void @llvm.memset.p0.i64(ptr noundef nonnull align 8 dereferenceable(24) %9, i8 0, i64 24, i1 false)
  %23 = tail call i64 @H5Tget_size(i64 noundef %6) #12
  %24 = getelementptr inbounds nuw i8, ptr %1, i64 320
  %25 = load i32, ptr %24, align 8, !tbaa !10
  %.not = icmp eq i32 %25, 0
  %narrow = select i1 %.not, i32 80, i32 %25
  %spec.select = zext i32 %narrow to i64
  %26 = getelementptr inbounds nuw i8, ptr %2, i64 1088
  %27 = load i64, ptr %26, align 8, !tbaa !16
  store i64 %27, ptr %10, align 8, !tbaa !19
  %.not51 = icmp eq i64 %5, 0
  br i1 %.not51, label %._crit_edge, label %.lr.ph

.lr.ph:                                           ; preds = %22
  %28 = and i32 %4, 2
  %29 = icmp eq i32 %28, 0
  %30 = getelementptr inbounds nuw i8, ptr %1, i64 280
  %31 = getelementptr inbounds nuw i8, ptr %2, i64 8
  br i1 %29, label %.lr.ph.split.us, label %.lr.ph.split

.lr.ph.split.us:                                  ; preds = %.lr.ph, %.lr.ph.split.us
  %.050.us = phi i64 [ %36, %.lr.ph.split.us ], [ 0, %.lr.ph ]
  %.03749.us = phi i64 [ %43, %.lr.ph.split.us ], [ 0, %.lr.ph ]
  %32 = mul i64 %.050.us, %23
  %33 = getelementptr inbounds nuw i8, ptr %7, i64 %32
  %34 = call ptr @h5tools_str_reset(ptr noundef nonnull %9) #12
  %35 = call ptr @h5tools_str_sprint(ptr noundef nonnull %9, ptr noundef nonnull %1, i64 noundef %3, i64 noundef %6, ptr noundef %33, ptr noundef nonnull %2) #12
  %36 = add nuw i64 %.050.us, 1
  %37 = load ptr, ptr %30, align 8, !tbaa !20
  %.not44.us = icmp eq ptr %37, null
  %spec.select47.us = select i1 %.not44.us, ptr @.str.11, ptr %37
  %38 = call ptr (ptr, ptr, ...) @h5tools_str_append(ptr noundef nonnull %9, ptr noundef nonnull @.str.20, ptr noundef nonnull %spec.select47.us) #12
  %39 = call zeroext i1 @h5tools_render_element(ptr noundef %0, ptr noundef nonnull %1, ptr noundef nonnull %2, ptr noundef nonnull %9, ptr noundef nonnull %10, i64 noundef %spec.select, i64 noundef %.050.us, i64 noundef %.03749.us) #12
  %40 = load i64, ptr %31, align 8, !tbaa !21
  %41 = add i64 %40, 1
  store i64 %41, ptr %31, align 8, !tbaa !21
  %42 = add i64 %.03749.us, 1
  %43 = select i1 %39, i64 %42, i64 1
  %exitcond53.not = icmp eq i64 %36, %5
  br i1 %exitcond53.not, label %._crit_edge, label %.lr.ph.split.us, !llvm.loop !22

.lr.ph.split:                                     ; preds = %.lr.ph, %53
  %.050 = phi i64 [ %48, %53 ], [ 0, %.lr.ph ]
  %.03749 = phi i64 [ %58, %53 ], [ 0, %.lr.ph ]
  %44 = mul i64 %.050, %23
  %45 = getelementptr inbounds nuw i8, ptr %7, i64 %44
  %46 = call ptr @h5tools_str_reset(ptr noundef nonnull %9) #12
  %47 = call ptr @h5tools_str_sprint(ptr noundef nonnull %9, ptr noundef %1, i64 noundef %3, i64 noundef %6, ptr noundef %45, ptr noundef nonnull %2) #12
  %48 = add nuw i64 %.050, 1
  %49 = icmp ult i64 %48, %5
  br i1 %49, label %50, label %53

50:                                               ; preds = %.lr.ph.split
  %51 = load ptr, ptr %30, align 8, !tbaa !20
  %.not44 = icmp eq ptr %51, null
  %spec.select47 = select i1 %.not44, ptr @.str.11, ptr %51
  %52 = call ptr (ptr, ptr, ...) @h5tools_str_append(ptr noundef nonnull %9, ptr noundef nonnull @.str.20, ptr noundef nonnull %spec.select47) #12
  br label %53

53:                                               ; preds = %.lr.ph.split, %50
  %54 = call zeroext i1 @h5tools_render_element(ptr noundef %0, ptr noundef %1, ptr noundef nonnull %2, ptr noundef nonnull %9, ptr noundef nonnull %10, i64 noundef %spec.select, i64 noundef %.050, i64 noundef %.03749) #12
  %55 = load i64, ptr %31, align 8, !tbaa !21
  %56 = add i64 %55, 1
  store i64 %56, ptr %31, align 8, !tbaa !21
  %57 = add i64 %.03749, 1
  %58 = select i1 %54, i64 %57, i64 1
  %exitcond.not = icmp eq i64 %48, %5
  br i1 %exitcond.not, label %._crit_edge, label %.lr.ph.split, !llvm.loop !22

._crit_edge:                                      ; preds = %53, %.lr.ph.split.us, %22
  call void @h5tools_str_close(ptr noundef nonnull %9) #12
  br label %59

59:                                               ; preds = %._crit_edge, %20, %15
  call void @llvm.lifetime.end.p0(i64 8, ptr nonnull %10) #12
  call void @llvm.lifetime.end.p0(i64 24, ptr nonnull %9) #12
  ret i32 0
}